target datalayout = "e-m:e-p270:32:32-p271:32:32-p272:64:64-i64:64-i128:128-f80:128-n8:16:32:64-S128"
target triple = "x86_64-pc-linux-gnu"

%struct.Nwk_Man_t_ = type { ptr, ptr, ptr, ptr, ptr, [5 x i32], i32, ptr, ptr, ptr, ptr, ptr, i32, i32, i32, i32, i32 }
%struct.Nwk_Obj_t_ = type { ptr, ptr, ptr, %union.anon, i32, i32, i32, i32, float, float, float, i32, i32, i32, ptr }
%union.anon = type { ptr }
%struct.Vec_Ptr_t_ = type { i32, i32, ptr }

@.str.1 = private unnamed_addr constant [90 x i8] c"Nwk_ManVerifyTiming(): Object %d has different arrival time (%.2f) from computed (%.2f).\0A\00", align 1
@.str.2 = private unnamed_addr constant [91 x i8] c"Nwk_ManVerifyTiming(): Object %d has different required time (%.2f) from computed (%.2f).\0A\00", align 1

; Function Attrs: inlinehint nounwind uwtable
define internal float @Nwk_ObjRequired(ptr noundef %0) #2 {
  %2 = alloca ptr, align 8
  store ptr %0, ptr %2, align 8, !tbaa !18
  %3 = load ptr, ptr %2, align 8, !tbaa !18
  %4 = getelementptr inbounds nuw %struct.Nwk_Obj_t_, ptr %3, i32 0, i32 9
  %5 = load float, ptr %4, align 4, !tbaa !26
  ret float %5
}

; Function Attrs: inlinehint nounwind uwtable
define internal i32 @Nwk_ManTimeEqual(float noundef %0, float noundef %1, float noundef %2) #2 {
  %4 = alloca float, align 4
  %5 = alloca float, align 4
  %6 = alloca float, align 4
  store float %0, ptr %4, align 4, !tbaa !40
  store float %1, ptr %5, align 4, !tbaa !40
  store float %2, ptr %6, align 4, !tbaa !40
  %7 = load float, ptr %4, align 4, !tbaa !40
  %8 = load float, ptr %5, align 4, !tbaa !40
  %9 = load float, ptr %6, align 4, !tbaa !40
  %10 = fadd float %8, %9
  %11 = fcmp olt float %7, %10
  br i1 %11, label %12, label %18

12:                                               ; preds = %3
  %13 = load float, ptr %5, align 4, !tbaa !40
  %14 = load float, ptr %4, align 4, !tbaa !40
  %15 = load float, ptr %6, align 4, !tbaa !40
  %16 = fadd float %14, %15
  %17 = fcmp olt float %13, %16
  br label %18

18:                                               ; preds = %12, %3
  %19 = phi i1 [ false, %3 ], [ %17, %12 ]
  %20 = zext i1 %19 to i32
  ret i32 %20
}

; Function Attrs: inlinehint nounwind uwtable
define internal float @Nwk_ObjArrival(ptr noundef %0) #2 {
  %2 = alloca ptr, align 8
  store ptr %0, ptr %2, align 8, !tbaa !18
  %3 = load ptr, ptr %2, align 8, !tbaa !18
  %4 = getelementptr inbounds nuw %struct.Nwk_Obj_t_, ptr %3, i32 0, i32 8
  %5 = load float, ptr %4, align 8, !tbaa !25
  ret float %5
}

; Function Attrs: inlinehint nounwind uwtable
define internal i32 @Nwk_ObjFanoutNum(ptr noundef %0) #2 {
  %2 = alloca ptr, align 8
  store ptr %0, ptr %2, align 8, !tbaa !18
  %3 = load ptr, ptr %2, align 8, !tbaa !18
  %4 = getelementptr inbounds nuw %struct.Nwk_Obj_t_, ptr %3, i32 0, i32 12
  %5 = load i32, ptr %4, align 8, !tbaa !55
  ret i32 %5
}

; Function Attrs: inlinehint nounwind uwtable
define internal i32 @Nwk_ObjIsCi(ptr noundef %0) #2 {
  %2 = alloca ptr, align 8
  store ptr %0, ptr %2, align 8, !tbaa !18
  %3 = load ptr, ptr %2, align 8, !tbaa !18
  %4 = getelementptr inbounds nuw %struct.Nwk_Obj_t_, ptr %3, i32 0, i32 4
  %5 = load i32, ptr %4, align 8
  %6 = and i32 %5, 7
  %7 = icmp eq i32 %6, 1
  %8 = zext i1 %7 to i32
  ret i32 %8
}

; Function Attrs: inlinehint nounwind uwtable
define internal ptr @Vec_PtrEntry(ptr noundef %0, i32 noundef %1) #2 {
  %3 = alloca ptr, align 8
  %4 = alloca i32, align 4
  store ptr %0, ptr %3, align 8, !tbaa !29
  store i32 %1, ptr %4, align 4, !tbaa !8
  %5 = load ptr, ptr %3, align 8, !tbaa !29
  %6 = getelementptr inbounds nuw %struct.Vec_Ptr_t_, ptr %5, i32 0, i32 2
  %7 = load ptr, ptr %6, align 8, !tbaa !32
  %8 = load i32, ptr %4, align 4, !tbaa !8
  %9 = sext i32 %8 to i64
  %10 = getelementptr inbounds ptr, ptr %7, i64 %9
  %11 = load ptr, ptr %10, align 8, !tbaa !33
  ret ptr %11
}

; Function Attrs: inlinehint nounwind uwtable
define internal i32 @Vec_PtrSize(ptr noundef %0) #2 {
  %2 = alloca ptr, align 8
  store ptr %0, ptr %2, align 8, !tbaa !29
  %3 = load ptr, ptr %2, align 8, !tbaa !29
  %4 = getelementptr inbounds nuw %struct.Vec_Ptr_t_, ptr %3, i32 0, i32 1
  %5 = load i32, ptr %4, align 4, !tbaa !30
  ret i32 %5
}

; Function Attrs: nounwind uwtable
define i32 @Nwk_ManVerifyTiming(ptr noundef %0) #0 {
  %2 = alloca ptr, align 8
  %3 = alloca ptr, align 8
  %4 = alloca float, align 4
  %5 = alloca float, align 4
  %6 = alloca i32, align 4
  store ptr %0, ptr %2, align 8, !tbaa !3
  call void @llvm.lifetime.start.p0(i64 8, ptr %3) #8
  call void @llvm.lifetime.start.p0(i64 4, ptr %4) #8
  call void @llvm.lifetime.start.p0(i64 4, ptr %5) #8
  call void @llvm.lifetime.start.p0(i64 4, ptr %6) #8
  store i32 0, ptr %6, align 4, !tbaa !8
  br label %7

7:                                                ; preds = %73, %1
  %8 = load i32, ptr %6, align 4, !tbaa !8
  %9 = load ptr, ptr %2, align 8, !tbaa !3
  %10 = getelementptr inbounds nuw %struct.Nwk_Man_t_, ptr %9, i32 0, i32 4
  %11 = load ptr, ptr %10, align 8, !tbaa !10
  %12 = call i32 @Vec_PtrSize(ptr noundef %11)
  %13 = icmp slt i32 %8, %12
  br i1 %13, label %14, label %20

14:                                               ; preds = %7
  %15 = load ptr, ptr %2, align 8, !tbaa !3
  %16 = getelementptr inbounds nuw %struct.Nwk_Man_t_, ptr %15, i32 0, i32 4
  %17 = load ptr, ptr %16, align 8, !tbaa !10
  %18 = load i32, ptr %6, align 4, !tbaa !8
  %19 = call ptr @Vec_PtrEntry(ptr noundef %17, i32 noundef %18)
  store ptr %19, ptr %3, align 8, !tbaa !18
  br label %20

20:                                               ; preds = %14, %7
  %21 = phi i1 [ false, %7 ], [ true, %14 ]
  br i1 %21, label %22, label %76

22:                                               ; preds = %20
  %23 = load ptr, ptr %3, align 8, !tbaa !18
  %24 = icmp eq ptr %23, null
  br i1 %24, label %25, label %26

25:                                               ; preds = %22
  br label %72

26:                                               ; preds = %22
  %27 = load ptr, ptr %3, align 8, !tbaa !18
  %28 = call i32 @Nwk_ObjIsCi(ptr noundef %27)
  %29 = icmp ne i32 %28, 0
  br i1 %29, label %30, label %35

30:                                               ; preds = %26
  %31 = load ptr, ptr %3, align 8, !tbaa !18
  %32 = call i32 @Nwk_ObjFanoutNum(ptr noundef %31)
  %33 = icmp eq i32 %32, 0
  br i1 %33, label %34, label %35

34:                                               ; preds = %30
  br label %73

35:                                               ; preds = %30, %26
  %36 = load ptr, ptr %3, align 8, !tbaa !18
  %37 = call float @Nwk_NodeComputeArrival(ptr noundef %36, i32 noundef 1)
  store float %37, ptr %4, align 4, !tbaa !40
  %38 = load ptr, ptr %3, align 8, !tbaa !18
  %39 = call float @Nwk_NodeComputeRequired(ptr noundef %38, i32 noundef 1)
  store float %39, ptr %5, align 4, !tbaa !40
  %40 = load float, ptr %4, align 4, !tbaa !40
  %41 = load ptr, ptr %3, align 8, !tbaa !18
  %42 = call float @Nwk_ObjArrival(ptr noundef %41)
  %43 = call i32 @Nwk_ManTimeEqual(float noundef %40, float noundef %42, float noundef 0x3F847AE140000000)
  %44 = icmp ne i32 %43, 0
  br i1 %44, label %55, label %45

45:                                               ; preds = %35
  %46 = load ptr, ptr %3, align 8, !tbaa !18
  %47 = getelementptr inbounds nuw %struct.Nwk_Obj_t_, ptr %46, i32 0, i32 5
  %48 = load i32, ptr %47, align 4, !tbaa !71
  %49 = load ptr, ptr %3, align 8, !tbaa !18
  %50 = call float @Nwk_ObjArrival(ptr noundef %49)
  %51 = fpext float %50 to double
  %52 = load float, ptr %4, align 4, !tbaa !40
  %53 = fpext float %52 to double
  %54 = call i32 (ptr, ...) @printf(ptr noundef @.str.1, i32 noundef %48, double noundef %51, double noundef %53)
  br label %55

55:                                               ; preds = %45, %35
  %56 = load float, ptr %5, align 4, !tbaa !40
  %57 = load ptr, ptr %3, align 8, !tbaa !18
  %58 = call float @Nwk_ObjRequired(ptr noundef %57)
  %59 = call i32 @Nwk_ManTimeEqual(float noundef %56, float noundef %58, float noundef 0x3F847AE140000000)
  %60 = icmp ne i32 %59, 0
  br i1 %60, label %71, label %61

61:                                               ; preds = %55
  %62 = load ptr, ptr %3, align 8, !tbaa !18
  %63 = getelementptr inbounds nuw %struct.Nwk_Obj_t_, ptr %62, i32 0, i32 5
  %64 = load i32, ptr %63, align 4, !tbaa !71
  %65 = load ptr, ptr %3, align 8, !tbaa !18
  %66 = call float @Nwk_ObjRequired(ptr noundef %65)
  %67 = fpext float %66 to double
  %68 = load float, ptr %5, align 4, !tbaa !40
  %69 = fpext float %68 to double
  %70 = call i32 (ptr, ...) @printf(ptr noundef @.str.2, i32 noundef %64, double noundef %67, double noundef %69)
  br label %71

71:                                               ; preds = %61, %55
  br label %72

72:                                               ; preds = %71, %25
  br label %73

73:                                               ; preds = %72, %34
  %74 = load i32, ptr %6, align 4, !tbaa !8
  %75 = add nsw i32 %74, 1
  store i32 %75, ptr %6, align 4, !tbaa !8
  br label %7, !llvm.loop !72

76:                                               ; preds = %20
  call void @llvm.lifetime.end.p0(i64 4, ptr %6) #8
  call void @llvm.lifetime.end.p0(i64 4, ptr %5) #8
  call void @llvm.lifetime.end.p0(i64 4, ptr %4) #8
  call void @llvm.lifetime.end.p0(i64 8, ptr %3) #8
  ret i32 1
}