; Function Attrs: nounwind uwtable
define noundef i32 @Nwk_ManVerifyTiming(ptr noundef readonly captures(none) %0) local_unnamed_addr #4 {
  %2 = getelementptr inbounds nuw i8, ptr %0, i64 32
  %3 = load ptr, ptr %2, align 8, !tbaa !3
  %4 = getelementptr i8, ptr %3, i64 4
  %.val34 = load i32, ptr %4, align 4, !tbaa !15
  %5 = icmp sgt i32 %.val34, 0
  br i1 %5, label %.lr.ph, label %.critedge

.lr.ph:                                           ; preds = %1, %43
  %indvars.iv = phi i64 [ %indvars.iv.next, %43 ], [ 0, %1 ]
  %6 = phi ptr [ %44, %43 ], [ %3, %1 ]
  %7 = getelementptr i8, ptr %6, i64 8
  %.val22 = load ptr, ptr %7, align 8, !tbaa !17
  %8 = getelementptr inbounds nuw ptr, ptr %.val22, i64 %indvars.iv
  %9 = load ptr, ptr %8, align 8, !tbaa !18
  %10 = icmp eq ptr %9, null
  br i1 %10, label %43, label %11

11:                                               ; preds = %.lr.ph
  %12 = getelementptr i8, ptr %9, i64 32
  %.val25 = load i32, ptr %12, align 8
  %13 = and i32 %.val25, 7
  %.not = icmp eq i32 %13, 1
  br i1 %.not, label %14, label %17

14:                                               ; preds = %11
  %15 = getelementptr i8, ptr %9, i64 64
  %.val28 = load i32, ptr %15, align 8, !tbaa !47
  %16 = icmp eq i32 %.val28, 0
  br i1 %16, label %43, label %17

17:                                               ; preds = %14, %11
  %18 = tail call float @Nwk_NodeComputeArrival(ptr noundef nonnull %9, i32 noundef 1)
  %19 = tail call float @Nwk_NodeComputeRequired(ptr noundef nonnull %9, i32 noundef 1)
  %20 = getelementptr i8, ptr %9, i64 48
  %.val24 = load float, ptr %20, align 8, !tbaa !25
  %21 = fadd float %.val24, 0x3F847AE140000000
  %22 = fcmp uge float %18, %21
  %23 = fadd float %18, 0x3F847AE140000000
  %24 = fcmp uge float %.val24, %23
  %narrow.i.not = or i1 %24, %22
  br i1 %narrow.i.not, label %25, label %31

25:                                               ; preds = %17
  %26 = getelementptr inbounds nuw i8, ptr %9, i64 36
  %27 = load i32, ptr %26, align 4, !tbaa !63
  %28 = fpext float %.val24 to double
  %29 = fpext float %18 to double
  %30 = tail call i32 (ptr, ...) @printf(ptr noundef nonnull dereferenceable(1) @.str.1, i32 noundef %27, double noundef %28, double noundef %29)
  br label %31

31:                                               ; preds = %25, %17
  %32 = getelementptr i8, ptr %9, i64 52
  %.val27 = load float, ptr %32, align 4, !tbaa !26
  %33 = fadd float %.val27, 0x3F847AE140000000
  %34 = fcmp uge float %19, %33
  %35 = fadd float %19, 0x3F847AE140000000
  %36 = fcmp uge float %.val27, %35
  %narrow.i29.not = or i1 %36, %34
  br i1 %narrow.i29.not, label %37, label %43

37:                                               ; preds = %31
  %38 = getelementptr inbounds nuw i8, ptr %9, i64 36
  %39 = load i32, ptr %38, align 4, !tbaa !63
  %40 = fpext float %.val27 to double
  %41 = fpext float %19 to double
  %42 = tail call i32 (ptr, ...) @printf(ptr noundef nonnull dereferenceable(1) @.str.2, i32 noundef %39, double noundef %40, double noundef %41)
  br label %43

43:                                               ; preds = %.lr.ph, %37, %31, %14
  %indvars.iv.next = add nuw nsw i64 %indvars.iv, 1
  %44 = load ptr, ptr %2, align 8, !tbaa !3
  %45 = getelementptr i8, ptr %44, i64 4
  %.val = load i32, ptr %45, align 4, !tbaa !15
  %46 = sext i32 %.val to i64
  %47 = icmp slt i64 %indvars.iv.next, %46
  br i1 %47, label %.lr.ph, label %.critedge, !llvm.loop !64

.critedge:                                        ; preds = %43, %1
  ret i32 1
}